; Function Attrs: nofree nosync nounwind memory(readwrite, inaccessiblemem: none) uwtable
define internal fastcc void @set_minmax(ptr noundef readonly captures(none) %0) unnamed_addr #10 {
  %2 = getelementptr inbounds nuw i8, ptr %0, i64 16
  %3 = load ptr, ptr %2, align 8, !tbaa !3
  %4 = getelementptr inbounds nuw i8, ptr %3, i64 376
  %5 = load ptr, ptr %4, align 8, !tbaa !42
  %6 = getelementptr inbounds nuw i8, ptr %5, i64 16
  %7 = load ptr, ptr %6, align 8, !tbaa !3
  %8 = getelementptr inbounds nuw i8, ptr %7, i64 360
  %9 = load i32, ptr %8, align 8, !tbaa !33
  %10 = getelementptr inbounds nuw i8, ptr %3, i64 336
  %11 = load i32, ptr %10, align 8, !tbaa !12
  %12 = add nsw i32 %11, %9
  store i32 %12, ptr %10, align 8, !tbaa !12
  %13 = getelementptr inbounds nuw i8, ptr %3, i64 340
  %14 = load i32, ptr %13, align 4, !tbaa !32
  %15 = add nsw i32 %14, %9
  store i32 %15, ptr %13, align 4, !tbaa !32
  %16 = getelementptr inbounds nuw i8, ptr %3, i64 236
  %17 = load i32, ptr %16, align 4, !tbaa !47
  %.not8 = icmp slt i32 %17, 1
  br i1 %.not8, label %._crit_edge, label %.lr.ph

.lr.ph:                                           ; preds = %1, %.lr.ph
  %indvars.iv = phi i64 [ %indvars.iv.next, %.lr.ph ], [ 1, %1 ]
  %18 = phi ptr [ %23, %.lr.ph ], [ %3, %1 ]
  %19 = getelementptr inbounds nuw i8, ptr %18, i64 240
  %20 = load ptr, ptr %19, align 8, !tbaa !114
  %21 = getelementptr inbounds nuw ptr, ptr %20, i64 %indvars.iv
  %22 = load ptr, ptr %21, align 8, !tbaa !115
  tail call fastcc void @set_minmax(ptr noundef %22)
  %indvars.iv.next = add nuw nsw i64 %indvars.iv, 1
  %23 = load ptr, ptr %2, align 8, !tbaa !3
  %24 = getelementptr inbounds nuw i8, ptr %23, i64 236
  %25 = load i32, ptr %24, align 4, !tbaa !47
  %26 = sext i32 %25 to i64
  %.not.not = icmp slt i64 %indvars.iv, %26
  br i1 %.not.not, label %.lr.ph, label %._crit_edge, !llvm.loop !138

._crit_edge:                                      ; preds = %.lr.ph, %1
  ret void
}